Certificate:
    Data:
        Version: 3 (0x2)
        Serial Number: 3094 (0xc16)
        Signature Algorithm: sha1WithRSAEncryption
        Issuer: C=US, ST=NY, L=New York, O=Bloomberg LP, OU=CTO Office, CN=Bloomberg LP CA/emailAddress=open-tech@bloomberg.net
        Validity
            Not Before: Feb  5 06:00:00 2015 GMT
            Not After : Feb 11 06:00:00 2015 GMT
        Subject: C=US, ST=NY, L=New York, O=Bloomberg LP, OU=CTO Office, CN=tartanhacks_spring_2015_031/emailAddress=open-tech@bloomberg.net
        Subject Public Key Info:
            Public Key Algorithm: rsaEncryption
            RSA Public Key: (1024 bit)
                Modulus (1024 bit):
                    00:b7:1e:69:e7:70:55:73:17:97:8a:f4:49:c9:73:
                    b1:b9:17:ec:2a:66:15:77:3a:c4:48:dd:df:d1:2c:
                    d7:76:5c:96:42:2b:46:f7:66:87:e2:98:0d:db:a4:
                    93:be:21:17:8c:f2:dd:83:78:cb:4a:43:3c:73:da:
                    5e:98:1a:b2:de:35:fb:4d:43:2e:a1:0b:12:ef:45:
                    ad:22:9d:39:4c:0e:e5:0d:4d:09:5d:95:af:a7:75:
                    40:f4:e1:27:04:ab:79:b3:35:1a:82:af:8f:2e:00:
                    00:3a:d9:14:0c:93:32:b5:22:51:40:44:16:6e:a1:
                    cd:fe:9d:e4:dc:b6:55:91:d3
                Exponent: 65537 (0x10001)
        X509v3 extensions:
            X509v3 Basic Constraints: 
                CA:FALSE
            Netscape Comment: 
                Easy-RSA Generated Certificate
            X509v3 Subject Key Identifier: 
                68:13:80:7D:1F:66:8C:B6:F0:EF:86:C3:99:87:8B:37:FD:86:EA:7B
            X509v3 Authority Key Identifier: 
                keyid:F3:21:76:1F:DA:B5:E7:03:FC:ED:D7:71:B8:1C:55:2D:7E:65:5F:14
                DirName:/C=US/ST=NY/L=New York/O=Bloomberg LP/OU=CTO Office/CN=Bloomberg LP CA/emailAddress=open-tech@bloomberg.net
                serial:81:F3:7A:1C:BC:C6:E8:A2

            X509v3 Extended Key Usage: 
                TLS Web Client Authentication
            X509v3 Key Usage: 
                Digital Signature
    Signature Algorithm: sha1WithRSAEncryption
        03:29:c7:3d:56:cd:9f:c6:c3:0e:12:c1:e5:46:48:3e:72:a8:
        a5:9a:70:a6:5a:6e:87:d5:e3:42:7e:40:f4:b2:36:ae:4c:a5:
        b7:5a:a9:88:31:91:ba:ce:ec:b0:a9:5b:46:00:43:3d:88:d4:
        4f:48:80:10:11:0a:ee:26:15:36:7f:52:e1:d5:0c:d2:1c:46:
        5f:12:28:56:92:7d:04:6c:76:e6:c2:13:f0:bc:f2:8d:92:29:
        d5:52:cd:2f:e1:0f:8d:41:41:31:f1:a8:ac:df:ab:a3:7f:17:
        91:92:99:aa:22:29:18:5b:fe:34:7d:5d:84:bc:59:5b:3c:68:
        ea:04
-----BEGIN CERTIFICATE-----
MIIEDzCCA3igAwIBAgICDBYwDQYJKoZIhvcNAQEFBQAwgZsxCzAJBgNVBAYTAlVT
MQswCQYDVQQIEwJOWTERMA8GA1UEBxMITmV3IFlvcmsxFTATBgNVBAoTDEJsb29t
YmVyZyBMUDETMBEGA1UECxMKQ1RPIE9mZmljZTEYMBYGA1UEAxMPQmxvb21iZXJn
IExQIENBMSYwJAYJKoZIhvcNAQkBFhdvcGVuLXRlY2hAYmxvb21iZXJnLm5ldDAe
Fw0xNTAyMDUwNjAwMDBaFw0xNTAyMTEwNjAwMDBaMIGnMQswCQYDVQQGEwJVUzEL
MAkGA1UECBMCTlkxETAPBgNVBAcTCE5ldyBZb3JrMRUwEwYDVQQKEwxCbG9vbWJl
cmcgTFAxEzARBgNVBAsTCkNUTyBPZmZpY2UxJDAiBgNVBAMUG3RhcnRhbmhhY2tz
X3NwcmluZ18yMDE1XzAzMTEmMCQGCSqGSIb3DQEJARYXb3Blbi10ZWNoQGJsb29t
YmVyZy5uZXQwgZ8wDQYJKoZIhvcNAQEBBQADgY0AMIGJAoGBALceaedwVXMXl4r0
SclzsbkX7CpmFXc6xEjd39Es13ZclkIrRvdmh+KYDdukk74hF4zy3YN4y0pDPHPa
Xpgast41+01DLqELEu9FrSKdOUwO5Q1NCV2Vr6d1QPThJwSrebM1GoKvjy4AADrZ
FAyTMrUiUUBEFm6hzf6d5Ny2VZHTAgMBAAGjggFSMIIBTjAJBgNVHRMEAjAAMC0G
CWCGSAGG+EIBDQQgFh5FYXN5LVJTQSBHZW5lcmF0ZWQgQ2VydGlmaWNhdGUwHQYD
VR0OBBYEFGgTgH0fZoy28O+Gw5mHizf9hup7MIHQBgNVHSMEgcgwgcWAFPMhdh/a
tecD/O3XcbgcVS1+ZV8UoYGhpIGeMIGbMQswCQYDVQQGEwJVUzELMAkGA1UECBMC
TlkxETAPBgNVBAcTCE5ldyBZb3JrMRUwEwYDVQQKEwxCbG9vbWJlcmcgTFAxEzAR
BgNVBAsTCkNUTyBPZmZpY2UxGDAWBgNVBAMTD0Jsb29tYmVyZyBMUCBDQTEmMCQG
CSqGSIb3DQEJARYXb3Blbi10ZWNoQGJsb29tYmVyZy5uZXSCCQCB83ocvMboojAT
BgNVHSUEDDAKBggrBgEFBQcDAjALBgNVHQ8EBAMCB4AwDQYJKoZIhvcNAQEFBQAD
gYEAAynHPVbNn8bDDhLB5UZIPnKopZpwplpuh9XjQn5A9LI2rkylt1qpiDGRus7s
sKlbRgBDPYjUT0iAEBEK7iYVNn9S4dUM0hxGXxIoVpJ9BGx25sIT8LzyjZIp1VLN
L+EPjUFBMfGorN+ro38XkZKZqiIpGFv+NH1dhLxZWzxo6gQ=
-----END CERTIFICATE-----
